; ModuleID = '51/362.c'
source_filename = "51/362.c"
target datalayout = "e-m:e-p270:32:32-p271:32:32-p272:64:64-i64:64-f80:128-n8:16:32:64-S128"
target triple = "x86_64-pc-linux-gnu"

@.str = private unnamed_addr constant [3 x i8] c"%d\00", align 1
@.str.1 = private unnamed_addr constant [3 x i8] c"NO\00", align 1
@.str.2 = private unnamed_addr constant [4 x i8] c"%d\0A\00", align 1

; Function Attrs: noinline nounwind uwtable
define dso_local i32 @main() #0 {
  %1 = alloca i32, align 4
  %2 = alloca i32, align 4
  %3 = alloca [500 x i8], align 16
  %4 = alloca [500 x [500 x i8]], align 16
  %5 = alloca [500 x i32], align 16
  %6 = alloca i32, align 4
  %7 = alloca i32, align 4
  %8 = alloca i32, align 4
  %9 = alloca i32, align 4
  %10 = alloca i32, align 4
  store i32 0, i32* %1, align 4
  %11 = call i32 (i8*, ...) @__isoc99_scanf(i8* getelementptr inbounds ([3 x i8], [3 x i8]* @.str, i64 0, i64 0), i32* %2)
  %12 = call i32 @getchar()
  %13 = getelementptr inbounds [500 x i8], [500 x i8]* %3, i64 0, i64 0
  %14 = call i32 (i8*, ...) bitcast (i32 (...)* @gets to i32 (i8*, ...)*)(i8* %13)
  %15 = bitcast [500 x i32]* %5 to i8*
  call void @llvm.memset.p0i8.i64(i8* align 16 %15, i8 0, i64 2000, i1 false)
  store i32 0, i32* %9, align 4
  %16 = getelementptr inbounds [500 x i8], [500 x i8]* %3, i64 0, i64 0
  %17 = call i64 @strlen(i8* %16) #4
  %18 = trunc i64 %17 to i32
  store i32 %18, i32* %8, align 4
  store i32 0, i32* %6, align 4
  br label %19

19:                                               ; preds = %53, %0
  %20 = load i32, i32* %6, align 4
  %21 = load i32, i32* %8, align 4
  %22 = load i32, i32* %2, align 4
  %23 = sub nsw i32 %21, %22
  %24 = icmp sle i32 %20, %23
  br i1 %24, label %25, label %56

25:                                               ; preds = %19
  store i32 0, i32* %7, align 4
  br label %26

26:                                               ; preds = %43, %25
  %27 = load i32, i32* %7, align 4
  %28 = load i32, i32* %2, align 4
  %29 = icmp slt i32 %27, %28
  br i1 %29, label %30, label %46

30:                                               ; preds = %26
  %31 = load i32, i32* %7, align 4
  %32 = load i32, i32* %6, align 4
  %33 = add nsw i32 %31, %32
  %34 = sext i32 %33 to i64
  %35 = getelementptr inbounds [500 x i8], [500 x i8]* %3, i64 0, i64 %34
  %36 = load i8, i8* %35, align 1
  %37 = load i32, i32* %6, align 4
  %38 = sext i32 %37 to i64
  %39 = getelementptr inbounds [500 x [500 x i8]], [500 x [500 x i8]]* %4, i64 0, i64 %38
  %40 = load i32, i32* %7, align 4
  %41 = sext i32 %40 to i64
  %42 = getelementptr inbounds [500 x i8], [500 x i8]* %39, i64 0, i64 %41
  store i8 %36, i8* %42, align 1
  br label %43

43:                                               ; preds = %30
  %44 = load i32, i32* %7, align 4
  %45 = add nsw i32 %44, 1
  store i32 %45, i32* %7, align 4
  br label %26

46:                                               ; preds = %26
  %47 = load i32, i32* %6, align 4
  %48 = sext i32 %47 to i64
  %49 = getelementptr inbounds [500 x [500 x i8]], [500 x [500 x i8]]* %4, i64 0, i64 %48
  %50 = load i32, i32* %2, align 4
  %51 = sext i32 %50 to i64
  %52 = getelementptr inbounds [500 x i8], [500 x i8]* %49, i64 0, i64 %51
  store i8 0, i8* %52, align 1
  br label %53

53:                                               ; preds = %46
  %54 = load i32, i32* %6, align 4
  %55 = add nsw i32 %54, 1
  store i32 %55, i32* %6, align 4
  br label %19

56:                                               ; preds = %19
  store i32 0, i32* %10, align 4
  store i32 0, i32* %6, align 4
  br label %57

57:                                               ; preds = %105, %56
  %58 = load i32, i32* %6, align 4
  %59 = load i32, i32* %8, align 4
  %60 = load i32, i32* %2, align 4
  %61 = sub nsw i32 %59, %60
  %62 = icmp sle i32 %58, %61
  br i1 %62, label %63, label %108

63:                                               ; preds = %57
  %64 = load i32, i32* %6, align 4
  store i32 %64, i32* %7, align 4
  br label %65

65:                                               ; preds = %101, %63
  %66 = load i32, i32* %7, align 4
  %67 = load i32, i32* %8, align 4
  %68 = load i32, i32* %2, align 4
  %69 = sub nsw i32 %67, %68
  %70 = icmp sle i32 %66, %69
  br i1 %70, label %71, label %104

71:                                               ; preds = %65
  %72 = load i32, i32* %6, align 4
  %73 = sext i32 %72 to i64
  %74 = getelementptr inbounds [500 x [500 x i8]], [500 x [500 x i8]]* %4, i64 0, i64 %73
  %75 = getelementptr inbounds [500 x i8], [500 x i8]* %74, i64 0, i64 0
  %76 = load i32, i32* %7, align 4
  %77 = sext i32 %76 to i64
  %78 = getelementptr inbounds [500 x [500 x i8]], [500 x [500 x i8]]* %4, i64 0, i64 %77
  %79 = getelementptr inbounds [500 x i8], [500 x i8]* %78, i64 0, i64 0
  %80 = call i32 @strcmp(i8* %75, i8* %79) #4
  %81 = icmp eq i32 %80, 0
  br i1 %81, label %82, label %88

82:                                               ; preds = %71
  %83 = load i32, i32* %6, align 4
  %84 = sext i32 %83 to i64
  %85 = getelementptr inbounds [500 x i32], [500 x i32]* %5, i64 0, i64 %84
  %86 = load i32, i32* %85, align 4
  %87 = add nsw i32 %86, 1
  store i32 %87, i32* %85, align 4
  br label %88

88:                                               ; preds = %82, %71
  %89 = load i32, i32* %6, align 4
  %90 = sext i32 %89 to i64
  %91 = getelementptr inbounds [500 x i32], [500 x i32]* %5, i64 0, i64 %90
  %92 = load i32, i32* %91, align 4
  %93 = load i32, i32* %10, align 4
  %94 = icmp sgt i32 %92, %93
  br i1 %94, label %95, label %100

95:                                               ; preds = %88
  %96 = load i32, i32* %6, align 4
  %97 = sext i32 %96 to i64
  %98 = getelementptr inbounds [500 x i32], [500 x i32]* %5, i64 0, i64 %97
  %99 = load i32, i32* %98, align 4
  store i32 %99, i32* %10, align 4
  br label %100

100:                                              ; preds = %95, %88
  br label %101

101:                                              ; preds = %100
  %102 = load i32, i32* %7, align 4
  %103 = add nsw i32 %102, 1
  store i32 %103, i32* %7, align 4
  br label %65

104:                                              ; preds = %65
  br label %105

105:                                              ; preds = %104
  %106 = load i32, i32* %6, align 4
  %107 = add nsw i32 %106, 1
  store i32 %107, i32* %6, align 4
  br label %57

108:                                              ; preds = %57
  %109 = load i32, i32* %10, align 4
  %110 = icmp eq i32 %109, 1
  br i1 %110, label %111, label %113

111:                                              ; preds = %108
  %112 = call i32 (i8*, ...) @printf(i8* getelementptr inbounds ([3 x i8], [3 x i8]* @.str.1, i64 0, i64 0))
  br label %140

113:                                              ; preds = %108
  %114 = load i32, i32* %10, align 4
  %115 = call i32 (i8*, ...) @printf(i8* getelementptr inbounds ([4 x i8], [4 x i8]* @.str.2, i64 0, i64 0), i32 %114)
  store i32 0, i32* %6, align 4
  br label %116

116:                                              ; preds = %136, %113
  %117 = load i32, i32* %6, align 4
  %118 = load i32, i32* %8, align 4
  %119 = load i32, i32* %2, align 4
  %120 = sub nsw i32 %118, %119
  %121 = icmp sle i32 %117, %120
  br i1 %121, label %122, label %139

122:                                              ; preds = %116
  %123 = load i32, i32* %6, align 4
  %124 = sext i32 %123 to i64
  %125 = getelementptr inbounds [500 x i32], [500 x i32]* %5, i64 0, i64 %124
  %126 = load i32, i32* %125, align 4
  %127 = load i32, i32* %10, align 4
  %128 = icmp eq i32 %126, %127
  br i1 %128, label %129, label %135

129:                                              ; preds = %122
  %130 = load i32, i32* %6, align 4
  %131 = sext i32 %130 to i64
  %132 = getelementptr inbounds [500 x [500 x i8]], [500 x [500 x i8]]* %4, i64 0, i64 %131
  %133 = getelementptr inbounds [500 x i8], [500 x i8]* %132, i64 0, i64 0
  %134 = call i32 @puts(i8* %133)
  br label %135

135:                                              ; preds = %129, %122
  br label %136

136:                                              ; preds = %135
  %137 = load i32, i32* %6, align 4
  %138 = add nsw i32 %137, 1
  store i32 %138, i32* %6, align 4
  br label %116

139:                                              ; preds = %116
  br label %140

140:                                              ; preds = %139, %111
  ret i32 0
}

declare dso_local i32 @__isoc99_scanf(i8*, ...) #1

declare dso_local i32 @getchar() #1

declare dso_local i32 @gets(...) #1

; Function Attrs: argmemonly nounwind willreturn
declare void @llvm.memset.p0i8.i64(i8* nocapture writeonly, i8, i64, i1 immarg) #2

; Function Attrs: nounwind readonly
declare dso_local i64 @strlen(i8*) #3

; Function Attrs: nounwind readonly
declare dso_local i32 @strcmp(i8*, i8*) #3

declare dso_local i32 @printf(i8*, ...) #1

declare dso_local i32 @puts(i8*) #1


!llvm.module.flags = !{!0}
!llvm.ident = !{!1}

!0 = !{i32 1, !"wchar_size", i32 4}
!1 = !{!"clang version 10.0.0-4ubuntu1 "}
